; Function Attrs: mustprogress uwtable
define dso_local void @_ZN5cmake16UnwatchUnusedCliERKNSt7__cxx1112basic_stringIcSt11char_traitsIcESaIcEEE(ptr noundef nonnull align 8 dereferenceable(2216) %0, ptr noundef nonnull align 8 dereferenceable(32) %1) local_unnamed_addr #3 align 2 {
  %3 = getelementptr inbounds i8, ptr %0, i64 1896
  %4 = load ptr, ptr %3, align 8
  tail call void @_ZN15cmVariableWatch11RemoveWatchERKNSt7__cxx1112basic_stringIcSt11char_traitsIcESaIcEEEPFvS7_iPvPKcPK10cmMakefileES8_(ptr noundef nonnull align 8 dereferenceable(48) %4, ptr noundef nonnull align 8 dereferenceable(32) %1, ptr noundef nonnull @_ZN12_GLOBAL__N_122cmWarnUnusedCliWarningERKNSt7__cxx1112basic_stringIcSt11char_traitsIcESaIcEEEiPvPKcPK10cmMakefile, ptr noundef null)
  %5 = getelementptr inbounds i8, ptr %0, i64 920
  %6 = tail call { ptr, ptr } @_ZNSt8_Rb_treeINSt7__cxx1112basic_stringIcSt11char_traitsIcESaIcEEESt4pairIKS5_bESt10_Select1stIS8_ESt4lessIS5_ESaIS8_EE11equal_rangeERS7_(ptr noundef nonnull align 8 dereferenceable(48) %5, ptr noundef nonnull align 8 dereferenceable(32) %1)
  %7 = extractvalue { ptr, ptr } %6, 0
  %8 = extractvalue { ptr, ptr } %6, 1
  tail call void @_ZNSt8_Rb_treeINSt7__cxx1112basic_stringIcSt11char_traitsIcESaIcEEESt4pairIKS5_bESt10_Select1stIS8_ESt4lessIS5_ESaIS8_EE12_M_erase_auxESt23_Rb_tree_const_iteratorIS8_ESG_(ptr noundef nonnull align 8 dereferenceable(48) %5, ptr %7, ptr %8)
  ret void
}